; ModuleID = '35/869.c'
source_filename = "35/869.c"
target datalayout = "e-m:e-p270:32:32-p271:32:32-p272:64:64-i64:64-f80:128-n8:16:32:64-S128"
target triple = "x86_64-pc-linux-gnu"

@.str = private unnamed_addr constant [6 x i8] c"%d,%d\00", align 1
@.str.1 = private unnamed_addr constant [3 x i8] c"%d\00", align 1
@.str.2 = private unnamed_addr constant [7 x i8] c"%d+%d\0A\00", align 1
@.str.3 = private unnamed_addr constant [4 x i8] c"No\0A\00", align 1

; Function Attrs: noinline nounwind uwtable
define dso_local void @main() #0 {
  %1 = alloca i32, align 4
  %2 = alloca i32, align 4
  %3 = alloca [8 x [8 x i32]], align 16
  %4 = alloca [70 x i32], align 16
  %5 = alloca i32, align 4
  %6 = alloca i32, align 4
  %7 = alloca i32, align 4
  %8 = alloca i32, align 4
  %9 = alloca i32, align 4
  %10 = alloca i32, align 4
  store i32 0, i32* %8, align 4
  %11 = call i32 (i8*, ...) @__isoc99_scanf(i8* getelementptr inbounds ([6 x i8], [6 x i8]* @.str, i64 0, i64 0), i32* %1, i32* %2)
  store i32 0, i32* %9, align 4
  br label %12

12:                                               ; preds = %33, %0
  %13 = load i32, i32* %9, align 4
  %14 = load i32, i32* %1, align 4
  %15 = icmp slt i32 %13, %14
  br i1 %15, label %16, label %36

16:                                               ; preds = %12
  store i32 0, i32* %10, align 4
  br label %17

17:                                               ; preds = %29, %16
  %18 = load i32, i32* %10, align 4
  %19 = load i32, i32* %2, align 4
  %20 = icmp slt i32 %18, %19
  br i1 %20, label %21, label %32

21:                                               ; preds = %17
  %22 = load i32, i32* %9, align 4
  %23 = sext i32 %22 to i64
  %24 = getelementptr inbounds [8 x [8 x i32]], [8 x [8 x i32]]* %3, i64 0, i64 %23
  %25 = load i32, i32* %10, align 4
  %26 = sext i32 %25 to i64
  %27 = getelementptr inbounds [8 x i32], [8 x i32]* %24, i64 0, i64 %26
  %28 = call i32 (i8*, ...) @__isoc99_scanf(i8* getelementptr inbounds ([3 x i8], [3 x i8]* @.str.1, i64 0, i64 0), i32* %27)
  br label %29

29:                                               ; preds = %21
  %30 = load i32, i32* %10, align 4
  %31 = add nsw i32 %30, 1
  store i32 %31, i32* %10, align 4
  br label %17

32:                                               ; preds = %17
  br label %33

33:                                               ; preds = %32
  %34 = load i32, i32* %9, align 4
  %35 = add nsw i32 %34, 1
  store i32 %35, i32* %9, align 4
  br label %12

36:                                               ; preds = %12
  store i32 0, i32* %9, align 4
  br label %37

37:                                               ; preds = %114, %36
  %38 = load i32, i32* %9, align 4
  %39 = load i32, i32* %1, align 4
  %40 = icmp slt i32 %38, %39
  br i1 %40, label %41, label %117

41:                                               ; preds = %37
  %42 = load i32, i32* %9, align 4
  %43 = sext i32 %42 to i64
  %44 = getelementptr inbounds [70 x i32], [70 x i32]* %4, i64 0, i64 %43
  store i32 0, i32* %44, align 4
  store i32 -1, i32* %5, align 4
  store i32 -1, i32* %6, align 4
  store i32 0, i32* %10, align 4
  br label %45

45:                                               ; preds = %76, %41
  %46 = load i32, i32* %10, align 4
  %47 = load i32, i32* %2, align 4
  %48 = icmp slt i32 %46, %47
  br i1 %48, label %49, label %79

49:                                               ; preds = %45
  %50 = load i32, i32* %9, align 4
  %51 = sext i32 %50 to i64
  %52 = getelementptr inbounds [8 x [8 x i32]], [8 x [8 x i32]]* %3, i64 0, i64 %51
  %53 = load i32, i32* %10, align 4
  %54 = sext i32 %53 to i64
  %55 = getelementptr inbounds [8 x i32], [8 x i32]* %52, i64 0, i64 %54
  %56 = load i32, i32* %55, align 4
  %57 = load i32, i32* %9, align 4
  %58 = sext i32 %57 to i64
  %59 = getelementptr inbounds [70 x i32], [70 x i32]* %4, i64 0, i64 %58
  %60 = load i32, i32* %59, align 4
  %61 = icmp sgt i32 %56, %60
  br i1 %61, label %62, label %75

62:                                               ; preds = %49
  %63 = load i32, i32* %9, align 4
  %64 = sext i32 %63 to i64
  %65 = getelementptr inbounds [8 x [8 x i32]], [8 x [8 x i32]]* %3, i64 0, i64 %64
  %66 = load i32, i32* %10, align 4
  %67 = sext i32 %66 to i64
  %68 = getelementptr inbounds [8 x i32], [8 x i32]* %65, i64 0, i64 %67
  %69 = load i32, i32* %68, align 4
  %70 = load i32, i32* %9, align 4
  %71 = sext i32 %70 to i64
  %72 = getelementptr inbounds [70 x i32], [70 x i32]* %4, i64 0, i64 %71
  store i32 %69, i32* %72, align 4
  %73 = load i32, i32* %9, align 4
  store i32 %73, i32* %5, align 4
  %74 = load i32, i32* %10, align 4
  store i32 %74, i32* %6, align 4
  store i32 1, i32* %8, align 4
  br label %75

75:                                               ; preds = %62, %49
  br label %76

76:                                               ; preds = %75
  %77 = load i32, i32* %10, align 4
  %78 = add nsw i32 %77, 1
  store i32 %78, i32* %10, align 4
  br label %45

79:                                               ; preds = %45
  store i32 0, i32* %7, align 4
  br label %80

80:                                               ; preds = %99, %79
  %81 = load i32, i32* %7, align 4
  %82 = load i32, i32* %1, align 4
  %83 = icmp slt i32 %81, %82
  br i1 %83, label %84, label %102

84:                                               ; preds = %80
  %85 = load i32, i32* %9, align 4
  %86 = sext i32 %85 to i64
  %87 = getelementptr inbounds [70 x i32], [70 x i32]* %4, i64 0, i64 %86
  %88 = load i32, i32* %87, align 4
  %89 = load i32, i32* %7, align 4
  %90 = sext i32 %89 to i64
  %91 = getelementptr inbounds [8 x [8 x i32]], [8 x [8 x i32]]* %3, i64 0, i64 %90
  %92 = load i32, i32* %6, align 4
  %93 = sext i32 %92 to i64
  %94 = getelementptr inbounds [8 x i32], [8 x i32]* %91, i64 0, i64 %93
  %95 = load i32, i32* %94, align 4
  %96 = icmp sgt i32 %88, %95
  br i1 %96, label %97, label %98

97:                                               ; preds = %84
  store i32 0, i32* %8, align 4
  br label %102

98:                                               ; preds = %84
  br label %99

99:                                               ; preds = %98
  %100 = load i32, i32* %7, align 4
  %101 = add nsw i32 %100, 1
  store i32 %101, i32* %7, align 4
  br label %80

102:                                              ; preds = %97, %80
  %103 = load i32, i32* %8, align 4
  %104 = icmp eq i32 %103, 1
  br i1 %104, label %105, label %109

105:                                              ; preds = %102
  %106 = load i32, i32* %5, align 4
  %107 = load i32, i32* %6, align 4
  %108 = call i32 (i8*, ...) @printf(i8* getelementptr inbounds ([7 x i8], [7 x i8]* @.str.2, i64 0, i64 0), i32 %106, i32 %107)
  br label %117

109:                                              ; preds = %102
  %110 = load i32, i32* %8, align 4
  %111 = icmp eq i32 %110, 1
  br i1 %111, label %112, label %113

112:                                              ; preds = %109
  br label %117

113:                                              ; preds = %109
  br label %114

114:                                              ; preds = %113
  %115 = load i32, i32* %9, align 4
  %116 = add nsw i32 %115, 1
  store i32 %116, i32* %9, align 4
  br label %37

117:                                              ; preds = %112, %105, %37
  %118 = load i32, i32* %8, align 4
  %119 = icmp eq i32 %118, 0
  br i1 %119, label %120, label %122

120:                                              ; preds = %117
  %121 = call i32 (i8*, ...) @printf(i8* getelementptr inbounds ([4 x i8], [4 x i8]* @.str.3, i64 0, i64 0))
  br label %122

122:                                              ; preds = %120, %117
  ret void
}

declare dso_local i32 @__isoc99_scanf(i8*, ...) #1

declare dso_local i32 @printf(i8*, ...) #1


!llvm.module.flags = !{!0}
!llvm.ident = !{!1}

!0 = !{i32 1, !"wchar_size", i32 4}
!1 = !{!"clang version 10.0.0-4ubuntu1 "}
